target datalayout = "e-m:e-p270:32:32-p271:32:32-p272:64:64-i64:64-i128:128-f80:128-n8:16:32:64-S128"
target triple = "x86_64-pc-linux-gnu"

%struct._packet_info = type { ptr, ptr, i32, i32, %struct.nstime_t, %struct.nstime_t, %struct.nstime_t, i8, ptr, ptr, ptr, ptr, %struct._address, %struct._address, %struct._address, %struct._address, %struct._address, %struct._address, i32, ptr, i8, [3 x i8], %struct.anon, i32, i32, i32, i32, ptr, i8, ptr, ptr, i16, i16, i32, i32, i16, i32, i32, ptr, ptr, ptr, i8, i8, i16, i16, i16, i32, i16, i16, ptr, ptr, ptr, ptr, ptr, i32, i32 }
%struct.nstime_t = type { i64, i32 }
%struct._address = type { i32, i32, ptr, ptr }
%struct.anon = type { i8, [3 x i8] }

@.str.1 = private unnamed_addr constant [3 x i8] c"%s\00", align 1
@hf_gtpv2_spare_bytes = internal global i32 0, align 4
@hf_gtpv2_abs_time_mbms_data = internal global i32 0, align 4

; Function Attrs: null_pointer_is_valid sspstrong uwtable
define internal void @dissect_gtpv2_abs_mbms_data_tf_time(ptr noundef %0, ptr noundef %1, ptr noundef %2, ptr noundef %3, i16 noundef zeroext %4, i8 noundef zeroext %5, i8 noundef zeroext %6, ptr noundef %7) #1 {
  %9 = alloca ptr, align 8
  %10 = alloca ptr, align 8
  %11 = alloca ptr, align 8
  %12 = alloca ptr, align 8
  %13 = alloca i16, align 2
  %14 = alloca i8, align 1
  %15 = alloca i8, align 1
  %16 = alloca ptr, align 8
  %17 = alloca i32, align 4
  %18 = alloca ptr, align 8
  store ptr %0, ptr %9, align 8
  store ptr %1, ptr %10, align 8
  store ptr %2, ptr %11, align 8
  store ptr %3, ptr %12, align 8
  store i16 %4, ptr %13, align 2
  store i8 %5, ptr %14, align 1
  store i8 %6, ptr %15, align 1
  store ptr %7, ptr %16, align 8
  call void @llvm.lifetime.start.p0(i64 4, ptr %17) #11
  store i32 0, ptr %17, align 4
  call void @llvm.lifetime.start.p0(i64 8, ptr %18) #11
  %19 = load ptr, ptr %11, align 8
  %20 = load i32, ptr @hf_gtpv2_abs_time_mbms_data, align 4
  %21 = load ptr, ptr %9, align 8
  %22 = load i32, ptr %17, align 4
  %23 = load ptr, ptr %10, align 8
  %24 = getelementptr inbounds nuw %struct._packet_info, ptr %23, i32 0, i32 51
  %25 = load ptr, ptr %24, align 8
  %26 = call ptr @proto_tree_add_item_ret_time_string(ptr noundef %19, i32 noundef %20, ptr noundef %21, i32 noundef %22, i32 noundef 8, i32 noundef 2, ptr noundef %25, ptr noundef %18)
  %27 = load ptr, ptr %12, align 8
  %28 = load ptr, ptr %18, align 8
  call void (ptr, ptr, ...) @proto_item_append_text(ptr noundef %27, ptr noundef @.str.1, ptr noundef %28)
  %29 = load i32, ptr %17, align 4
  %30 = add i32 %29, 8
  store i32 %30, ptr %17, align 4
  %31 = load i16, ptr %13, align 2
  %32 = zext i16 %31 to i32
  %33 = load i32, ptr %17, align 4
  %34 = icmp sgt i32 %32, %33
  br i1 %34, label %35, label %45

35:                                               ; preds = %8
  %36 = load ptr, ptr %11, align 8
  %37 = load i32, ptr @hf_gtpv2_spare_bytes, align 4
  %38 = load ptr, ptr %9, align 8
  %39 = load i32, ptr %17, align 4
  %40 = load i16, ptr %13, align 2
  %41 = zext i16 %40 to i32
  %42 = load i32, ptr %17, align 4
  %43 = sub i32 %41, %42
  %44 = call ptr @proto_tree_add_item(ptr noundef %36, i32 noundef %37, ptr noundef %38, i32 noundef %39, i32 noundef %43, i32 noundef 0)
  br label %45

45:                                               ; preds = %35, %8
  call void @llvm.lifetime.end.p0(i64 8, ptr %18) #11
  call void @llvm.lifetime.end.p0(i64 4, ptr %17) #11
  ret void
}