; Function Attrs: null_pointer_is_valid sspstrong uwtable
define internal void @dissect_gtpv2_abs_mbms_data_tf_time(ptr noundef %0, ptr noundef readonly captures(none) %1, ptr noundef %2, ptr noundef %3, i16 noundef zeroext %4, i8 zeroext %5, i8 zeroext %6, ptr readnone captures(none) %7) #1 {
  %9 = alloca ptr, align 8
  call void @llvm.lifetime.start.p0(i64 8, ptr nonnull %9) #12
  %10 = load i32, ptr @hf_gtpv2_abs_time_mbms_data, align 4
  %11 = getelementptr inbounds nuw i8, ptr %1, i64 408
  %12 = load ptr, ptr %11, align 8
  %13 = call ptr @proto_tree_add_item_ret_time_string(ptr noundef %2, i32 noundef %10, ptr noundef %0, i32 noundef 0, i32 noundef 8, i32 noundef 2, ptr noundef %12, ptr noundef nonnull %9)
  %14 = load ptr, ptr %9, align 8
  call void (ptr, ptr, ...) @proto_item_append_text(ptr noundef %3, ptr noundef nonnull @.str.1, ptr noundef %14)
  %15 = icmp ugt i16 %4, 8
  br i1 %15, label %16, label %21

16:                                               ; preds = %8
  %17 = zext i16 %4 to i32
  %18 = load i32, ptr @hf_gtpv2_spare_bytes, align 4
  %19 = add nsw i32 %17, -8
  %20 = call ptr @proto_tree_add_item(ptr noundef %2, i32 noundef %18, ptr noundef %0, i32 noundef 8, i32 noundef %19, i32 noundef 0)
  br label %21

21:                                               ; preds = %16, %8
  call void @llvm.lifetime.end.p0(i64 8, ptr nonnull %9) #12
  ret void
}